; Function Attrs: mustprogress nounwind uwtable
define internal fastcc noundef ptr @_ZNK12_GLOBAL__N_19Immediate15getNegativeSCEVERN4llvm15ScalarEvolutionEPNS1_4TypeE(ptr nocapture noundef nonnull readonly align 8 dereferenceable(9) %0, ptr noundef nonnull align 8 dereferenceable(1392) %1, ptr noundef %2) unnamed_addr #0 align 2 {
  %4 = alloca %"class.llvm::SmallVector.367", align 8
  %5 = alloca [2 x ptr], align 8
  %6 = load i64, ptr %0, align 8
  %7 = sub i64 0, %6
  %8 = tail call noundef ptr @_ZN4llvm15ScalarEvolution11getConstantEPNS_4TypeEmb(ptr noundef nonnull align 8 dereferenceable(1392) %1, ptr noundef %2, i64 noundef %7, i1 noundef zeroext false) #21
  %9 = getelementptr inbounds nuw i8, ptr %0, i64 8
  %10 = load i8, ptr %9, align 8
  %11 = trunc i8 %10 to i1
  br i1 %11, label %12, label %23

12:                                               ; preds = %3
  %13 = tail call noundef ptr @_ZNK4llvm4SCEV7getTypeEv(ptr noundef nonnull align 8 dereferenceable(30) %8) #21
  %14 = tail call noundef ptr @_ZN4llvm15ScalarEvolution9getVScaleEPNS_4TypeE(ptr noundef nonnull align 8 dereferenceable(1392) %1, ptr noundef %13) #21
  call void @llvm.lifetime.start.p0(i64 32, ptr nonnull %4)
  call void @llvm.lifetime.start.p0(i64 16, ptr nonnull %5)
  store ptr %8, ptr %5, align 8
  %15 = getelementptr inbounds i8, ptr %5, i64 8
  store ptr %14, ptr %15, align 8
  %16 = getelementptr inbounds i8, ptr %4, i64 16
  call void @_ZN4llvm15SmallVectorBaseIjEC2EPvm(ptr noundef nonnull align 8 dereferenceable(16) %4, ptr noundef nonnull %16, i64 noundef 2) #21
  %17 = getelementptr inbounds i8, ptr %5, i64 16
  call void @_ZN4llvm15SmallVectorImplIPKNS_4SCEVEE6appendIPKS3_vEEvT_S8_(ptr noundef nonnull align 8 dereferenceable(16) %4, ptr noundef nonnull %5, ptr noundef nonnull %17)
  %18 = call noundef ptr @_ZN4llvm15ScalarEvolution10getMulExprERNS_15SmallVectorImplIPKNS_4SCEVEEENS2_11NoWrapFlagsEj(ptr noundef nonnull align 8 dereferenceable(1392) %1, ptr noundef nonnull align 8 dereferenceable(16) %4, i32 noundef 0, i32 noundef 0) #21
  %19 = call noundef i64 @_ZNK4llvm15SmallVectorBaseIjE4sizeEv(ptr noundef nonnull align 8 dereferenceable(16) %4) #21
  %20 = load ptr, ptr %4, align 8
  %21 = icmp eq ptr %20, %16
  br i1 %21, label %_ZN4llvm15ScalarEvolution10getMulExprEPKNS_4SCEVES3_NS1_11NoWrapFlagsEj.exit, label %22

22:                                               ; preds = %12
  call void @free(ptr noundef %20) #21
  br label %_ZN4llvm15ScalarEvolution10getMulExprEPKNS_4SCEVES3_NS1_11NoWrapFlagsEj.exit

_ZN4llvm15ScalarEvolution10getMulExprEPKNS_4SCEVES3_NS1_11NoWrapFlagsEj.exit: ; preds = %12, %22
  call void @llvm.lifetime.end.p0(i64 32, ptr nonnull %4)
  call void @llvm.lifetime.end.p0(i64 16, ptr nonnull %5)
  br label %23

23:                                               ; preds = %_ZN4llvm15ScalarEvolution10getMulExprEPKNS_4SCEVES3_NS1_11NoWrapFlagsEj.exit, %3
  %.0 = phi ptr [ %18, %_ZN4llvm15ScalarEvolution10getMulExprEPKNS_4SCEVES3_NS1_11NoWrapFlagsEj.exit ], [ %8, %3 ]
  ret ptr %.0
}